target datalayout = "e-m:e-p270:32:32-p271:32:32-p272:64:64-i64:64-i128:128-f80:128-n8:16:32:64-S128"
target triple = "x86_64-pc-linux-gnu"

%struct.CRYPTO_REF_COUNT = type { i32 }
%struct.evp_kem_st = type { i32, ptr, ptr, ptr, %struct.CRYPTO_REF_COUNT, ptr, ptr, ptr, ptr, ptr, ptr, ptr, ptr, ptr, ptr, ptr, ptr, ptr }

; Function Attrs: nounwind uwtable
define i32 @EVP_KEM_names_do_all(ptr noundef %0, ptr noundef %1, ptr noundef %2) #0 {
  %4 = alloca i32, align 4
  %5 = alloca ptr, align 8
  %6 = alloca ptr, align 8
  %7 = alloca ptr, align 8
  store ptr %0, ptr %5, align 8, !tbaa !14
  store ptr %1, ptr %6, align 8, !tbaa !20
  store ptr %2, ptr %7, align 8, !tbaa !20
  %8 = load ptr, ptr %5, align 8, !tbaa !14
  %9 = getelementptr inbounds nuw %struct.evp_kem_st, ptr %8, i32 0, i32 3
  %10 = load ptr, ptr %9, align 8, !tbaa !52
  %11 = icmp ne ptr %10, null
  br i1 %11, label %12, label %22

12:                                               ; preds = %3
  %13 = load ptr, ptr %5, align 8, !tbaa !14
  %14 = getelementptr inbounds nuw %struct.evp_kem_st, ptr %13, i32 0, i32 3
  %15 = load ptr, ptr %14, align 8, !tbaa !52
  %16 = load ptr, ptr %5, align 8, !tbaa !14
  %17 = getelementptr inbounds nuw %struct.evp_kem_st, ptr %16, i32 0, i32 0
  %18 = load i32, ptr %17, align 8, !tbaa !71
  %19 = load ptr, ptr %6, align 8, !tbaa !20
  %20 = load ptr, ptr %7, align 8, !tbaa !20
  %21 = call i32 @evp_names_do_all(ptr noundef %15, i32 noundef %18, ptr noundef %19, ptr noundef %20)
  store i32 %21, ptr %4, align 4
  br label %23

22:                                               ; preds = %3
  store i32 1, ptr %4, align 4
  br label %23

23:                                               ; preds = %22, %12
  %24 = load i32, ptr %4, align 4
  ret i32 %24
}