; Function Attrs: nounwind uwtable
define i32 @EVP_KEM_names_do_all(ptr noundef readonly captures(none) %0, ptr noundef %1, ptr noundef %2) local_unnamed_addr #0 {
  %4 = getelementptr inbounds nuw i8, ptr %0, i64 24
  %5 = load ptr, ptr %4, align 8, !tbaa !37
  %.not = icmp eq ptr %5, null
  br i1 %.not, label %9, label %6

6:                                                ; preds = %3
  %7 = load i32, ptr %0, align 8, !tbaa !54
  %8 = tail call i32 @evp_names_do_all(ptr noundef nonnull %5, i32 noundef %7, ptr noundef %1, ptr noundef %2) #5
  br label %9

9:                                                ; preds = %3, %6
  %.0 = phi i32 [ %8, %6 ], [ 1, %3 ]
  ret i32 %.0
}